target datalayout = "e-m:e-p270:32:32-p271:32:32-p272:64:64-i64:64-i128:128-f80:128-n8:16:32:64-S128"
target triple = "x86_64-pc-linux-gnu"

%struct.QVirtioPCIDevice = type { %struct.QOSGraphObject, %struct.QVirtioDevice, ptr, %struct.QPCIBar, ptr, i16, i64, i32, i32, i32, i32, i32, i32, i32 }
%struct.QOSGraphObject = type { ptr, ptr, ptr, ptr, ptr }
%struct.QVirtioDevice = type { ptr, i16, i64, i8, i8 }
%struct.QPCIBar = type { i64, i8 }
%struct.QPCIDevice = type { ptr, i32, i8, %struct.QPCIBar, %struct.QPCIBar, i64, i64 }
%struct.QVirtQueuePCI = type { %struct.QVirtQueue, i16, i64, i32, i64 }
%struct.QVirtQueue = type { ptr, i64, i64, i64, i16, i32, i32, i32, i32, i16, i8, i8 }
%struct.QPCIBus = type { ptr, ptr, ptr, ptr, ptr, ptr, ptr, ptr, ptr, ptr, ptr, ptr, ptr, ptr, ptr, ptr, ptr, i64, i64, i64, i64, i8, i8 }

@.str = private unnamed_addr constant [47 x i8] c"../qemu/tests/qtest/libqos/virtio-pci-modern.c\00", align 1
@.str.4 = private unnamed_addr constant [3 x i8] c"!=\00", align 1
@__func__.get_msix_status = private unnamed_addr constant [16 x i8] c"get_msix_status\00", align 1
@.str.5 = private unnamed_addr constant [17 x i8] c"msix_entry != -1\00", align 1

; Function Attrs: nounwind sspstrong uwtable
define internal zeroext i1 @get_msix_status(ptr noundef %0, i32 noundef %1, i32 noundef %2, i32 noundef %3) #0 {
  %5 = alloca i1, align 1
  %6 = alloca ptr, align 8
  %7 = alloca i32, align 4
  %8 = alloca i32, align 4
  %9 = alloca i32, align 4
  %10 = alloca i32, align 4
  %11 = alloca i64, align 8
  %12 = alloca i64, align 8
  %13 = alloca i32, align 4
  store ptr %0, ptr %6, align 8
  store i32 %1, ptr %7, align 4
  store i32 %2, ptr %8, align 4
  store i32 %3, ptr %9, align 4
  call void @llvm.lifetime.start.p0(i64 4, ptr %10) #5
  store i32 0, ptr %10, align 4, !annotation !4
  br label %14

14:                                               ; preds = %4
  call void @llvm.lifetime.start.p0(i64 8, ptr %11) #5
  %15 = load i32, ptr %7, align 4
  %16 = zext i32 %15 to i64
  store i64 %16, ptr %11, align 8
  call void @llvm.lifetime.start.p0(i64 8, ptr %12) #5
  store i64 -1, ptr %12, align 8
  %17 = load i64, ptr %11, align 8
  %18 = load i64, ptr %12, align 8
  %19 = icmp ne i64 %17, %18
  br i1 %19, label %20, label %21

20:                                               ; preds = %14
  br label %26

21:                                               ; preds = %14
  %22 = load i64, ptr %11, align 8
  %23 = sitofp i64 %22 to x86_fp80
  %24 = load i64, ptr %12, align 8
  %25 = sitofp i64 %24 to x86_fp80
  call void @g_assertion_message_cmpnum(ptr noundef null, ptr noundef @.str, i32 noundef 133, ptr noundef @__func__.get_msix_status, ptr noundef @.str.5, x86_fp80 noundef %23, ptr noundef @.str.4, x86_fp80 noundef %25, i8 noundef signext 105)
  br label %26

26:                                               ; preds = %21, %20
  call void @llvm.lifetime.end.p0(i64 8, ptr %12) #5
  call void @llvm.lifetime.end.p0(i64 8, ptr %11) #5
  br label %27

27:                                               ; preds = %26
  br label %28

28:                                               ; preds = %27
  %29 = load ptr, ptr %6, align 8
  %30 = getelementptr inbounds nuw %struct.QVirtioPCIDevice, ptr %29, i32 0, i32 2
  %31 = load ptr, ptr %30, align 8
  %32 = load i32, ptr %7, align 4
  %33 = trunc i32 %32 to i16
  %34 = call zeroext i1 @qpci_msix_masked(ptr noundef %31, i16 noundef zeroext %33)
  br i1 %34, label %35, label %42

35:                                               ; preds = %28
  %36 = load ptr, ptr %6, align 8
  %37 = getelementptr inbounds nuw %struct.QVirtioPCIDevice, ptr %36, i32 0, i32 2
  %38 = load ptr, ptr %37, align 8
  %39 = load i32, ptr %7, align 4
  %40 = trunc i32 %39 to i16
  %41 = call zeroext i1 @qpci_msix_pending(ptr noundef %38, i16 noundef zeroext %40)
  store i1 %41, ptr %5, align 1
  store i32 1, ptr %13, align 4
  br label %67

42:                                               ; preds = %28
  %43 = load ptr, ptr %6, align 8
  %44 = getelementptr inbounds nuw %struct.QVirtioPCIDevice, ptr %43, i32 0, i32 2
  %45 = load ptr, ptr %44, align 8
  %46 = getelementptr inbounds nuw %struct.QPCIDevice, ptr %45, i32 0, i32 0
  %47 = load ptr, ptr %46, align 8
  %48 = getelementptr inbounds nuw %struct.QPCIBus, ptr %47, i32 0, i32 16
  %49 = load ptr, ptr %48, align 8
  %50 = load i32, ptr %8, align 4
  %51 = zext i32 %50 to i64
  %52 = call i32 @qtest_readl(ptr noundef %49, i64 noundef %51)
  store i32 %52, ptr %10, align 4
  %53 = load i32, ptr %10, align 4
  %54 = load i32, ptr %9, align 4
  %55 = icmp eq i32 %53, %54
  br i1 %55, label %56, label %66

56:                                               ; preds = %42
  %57 = load ptr, ptr %6, align 8
  %58 = getelementptr inbounds nuw %struct.QVirtioPCIDevice, ptr %57, i32 0, i32 2
  %59 = load ptr, ptr %58, align 8
  %60 = getelementptr inbounds nuw %struct.QPCIDevice, ptr %59, i32 0, i32 0
  %61 = load ptr, ptr %60, align 8
  %62 = getelementptr inbounds nuw %struct.QPCIBus, ptr %61, i32 0, i32 16
  %63 = load ptr, ptr %62, align 8
  %64 = load i32, ptr %8, align 4
  %65 = zext i32 %64 to i64
  call void @qtest_writel(ptr noundef %63, i64 noundef %65, i32 noundef 0)
  store i1 true, ptr %5, align 1
  store i32 1, ptr %13, align 4
  br label %67

66:                                               ; preds = %42
  store i1 false, ptr %5, align 1
  store i32 1, ptr %13, align 4
  br label %67

67:                                               ; preds = %66, %56, %35
  call void @llvm.lifetime.end.p0(i64 4, ptr %10) #5
  %68 = load i1, ptr %5, align 1
  ret i1 %68
}

; Function Attrs: nounwind sspstrong uwtable
define internal zeroext i1 @get_queue_isr_status(ptr noundef %0, ptr noundef %1) #0 {
  %3 = alloca i1, align 1
  %4 = alloca ptr, align 8
  %5 = alloca ptr, align 8
  %6 = alloca ptr, align 8
  %7 = alloca ptr, align 8
  %8 = alloca ptr, align 8
  %9 = alloca ptr, align 8
  %10 = alloca ptr, align 8
  %11 = alloca ptr, align 8
  %12 = alloca i32, align 4
  store ptr %0, ptr %4, align 8
  store ptr %1, ptr %5, align 8
  call void @llvm.lifetime.start.p0(i64 8, ptr %6) #5
  call void @llvm.lifetime.start.p0(i64 8, ptr %7) #5
  %13 = load ptr, ptr %4, align 8
  store ptr %13, ptr %7, align 8
  %14 = load ptr, ptr %7, align 8
  %15 = getelementptr inbounds i8, ptr %14, i64 -40
  store ptr %15, ptr %8, align 8
  call void @llvm.lifetime.end.p0(i64 8, ptr %7) #5
  %16 = load ptr, ptr %8, align 8
  store ptr %16, ptr %6, align 8
  %17 = load ptr, ptr %6, align 8
  %18 = getelementptr inbounds nuw %struct.QVirtioPCIDevice, ptr %17, i32 0, i32 2
  %19 = load ptr, ptr %18, align 8
  %20 = getelementptr inbounds nuw %struct.QPCIDevice, ptr %19, i32 0, i32 2
  %21 = load i8, ptr %20, align 4, !range !7, !noundef !8
  %22 = trunc i8 %21 to i1
  br i1 %22, label %23, label %41

23:                                               ; preds = %2
  call void @llvm.lifetime.start.p0(i64 8, ptr %9) #5
  call void @llvm.lifetime.start.p0(i64 8, ptr %10) #5
  %24 = load ptr, ptr %5, align 8
  store ptr %24, ptr %10, align 8
  %25 = load ptr, ptr %10, align 8
  %26 = getelementptr inbounds i8, ptr %25, i64 0
  store ptr %26, ptr %11, align 8
  call void @llvm.lifetime.end.p0(i64 8, ptr %10) #5
  %27 = load ptr, ptr %11, align 8
  store ptr %27, ptr %9, align 8
  %28 = load ptr, ptr %6, align 8
  %29 = load ptr, ptr %9, align 8
  %30 = getelementptr inbounds nuw %struct.QVirtQueuePCI, ptr %29, i32 0, i32 1
  %31 = load i16, ptr %30, align 8
  %32 = zext i16 %31 to i32
  %33 = load ptr, ptr %9, align 8
  %34 = getelementptr inbounds nuw %struct.QVirtQueuePCI, ptr %33, i32 0, i32 2
  %35 = load i64, ptr %34, align 8
  %36 = trunc i64 %35 to i32
  %37 = load ptr, ptr %9, align 8
  %38 = getelementptr inbounds nuw %struct.QVirtQueuePCI, ptr %37, i32 0, i32 3
  %39 = load i32, ptr %38, align 8
  %40 = call zeroext i1 @get_msix_status(ptr noundef %28, i32 noundef %32, i32 noundef %36, i32 noundef %39)
  store i1 %40, ptr %3, align 1
  store i32 1, ptr %12, align 4
  call void @llvm.lifetime.end.p0(i64 8, ptr %9) #5
  br label %59

41:                                               ; preds = %2
  %42 = load ptr, ptr %6, align 8
  %43 = getelementptr inbounds nuw %struct.QVirtioPCIDevice, ptr %42, i32 0, i32 2
  %44 = load ptr, ptr %43, align 8
  %45 = load ptr, ptr %6, align 8
  %46 = getelementptr inbounds nuw %struct.QVirtioPCIDevice, ptr %45, i32 0, i32 3
  %47 = load ptr, ptr %6, align 8
  %48 = getelementptr inbounds nuw %struct.QVirtioPCIDevice, ptr %47, i32 0, i32 12
  %49 = load i32, ptr %48, align 4
  %50 = zext i32 %49 to i64
  %51 = getelementptr inbounds nuw { i64, i8 }, ptr %46, i32 0, i32 0
  %52 = load i64, ptr %51, align 8
  %53 = getelementptr inbounds nuw { i64, i8 }, ptr %46, i32 0, i32 1
  %54 = load i8, ptr %53, align 8
  %55 = call zeroext i8 @qpci_io_readb(ptr noundef %44, i64 %52, i8 %54, i64 noundef %50)
  %56 = zext i8 %55 to i32
  %57 = and i32 %56, 1
  %58 = icmp ne i32 %57, 0
  store i1 %58, ptr %3, align 1
  store i32 1, ptr %12, align 4
  br label %59

59:                                               ; preds = %41, %23
  call void @llvm.lifetime.end.p0(i64 8, ptr %6) #5
  %60 = load i1, ptr %3, align 1
  ret i1 %60
}