; Function Attrs: nounwind sspstrong uwtable
define internal zeroext i1 @get_queue_isr_status(ptr noundef readonly captures(none) %0, ptr noundef readonly captures(none) %1) #0 {
  %3 = getelementptr inbounds nuw i8, ptr %0, i64 32
  %4 = load ptr, ptr %3, align 8
  %5 = getelementptr inbounds nuw i8, ptr %4, i64 12
  %6 = load i8, ptr %5, align 4, !range !6, !noundef !7
  %7 = trunc nuw i8 %6 to i1
  br i1 %7, label %8, label %31

8:                                                ; preds = %2
  %9 = getelementptr inbounds nuw i8, ptr %1, i64 56
  %10 = load i16, ptr %9, align 8
  %11 = getelementptr inbounds nuw i8, ptr %1, i64 64
  %12 = load i64, ptr %11, align 8
  %13 = getelementptr inbounds nuw i8, ptr %1, i64 72
  %14 = load i32, ptr %13, align 8
  %15 = tail call zeroext i1 @qpci_msix_masked(ptr noundef nonnull %4, i16 noundef zeroext %10) #3
  %16 = load ptr, ptr %3, align 8
  br i1 %15, label %17, label %19

17:                                               ; preds = %8
  %18 = tail call zeroext i1 @qpci_msix_pending(ptr noundef %16, i16 noundef zeroext %10) #3
  br label %get_msix_status.exit

19:                                               ; preds = %8
  %20 = load ptr, ptr %16, align 8
  %21 = getelementptr inbounds nuw i8, ptr %20, i64 128
  %22 = load ptr, ptr %21, align 8
  %23 = and i64 %12, 4294967295
  %24 = tail call i32 @qtest_readl(ptr noundef %22, i64 noundef %23) #3
  %25 = icmp eq i32 %24, %14
  br i1 %25, label %26, label %get_msix_status.exit

26:                                               ; preds = %19
  %27 = load ptr, ptr %3, align 8
  %28 = load ptr, ptr %27, align 8
  %29 = getelementptr inbounds nuw i8, ptr %28, i64 128
  %30 = load ptr, ptr %29, align 8
  tail call void @qtest_writel(ptr noundef %30, i64 noundef %23, i32 noundef 0) #3
  br label %get_msix_status.exit

31:                                               ; preds = %2
  %32 = getelementptr inbounds nuw i8, ptr %0, i64 40
  %33 = getelementptr inbounds nuw i8, ptr %0, i64 100
  %34 = load i32, ptr %33, align 4
  %35 = zext i32 %34 to i64
  %36 = load i64, ptr %32, align 8
  %37 = getelementptr inbounds nuw i8, ptr %0, i64 48
  %38 = load i8, ptr %37, align 8
  %39 = tail call zeroext i8 @qpci_io_readb(ptr noundef nonnull %4, i64 %36, i8 %38, i64 noundef %35) #3
  %40 = and i8 %39, 1
  %41 = icmp ne i8 %40, 0
  br label %get_msix_status.exit

get_msix_status.exit:                             ; preds = %26, %19, %17, %31
  %.0 = phi i1 [ %41, %31 ], [ %18, %17 ], [ true, %26 ], [ false, %19 ]
  ret i1 %.0
}